target datalayout = "e-m:e-p270:32:32-p271:32:32-p272:64:64-i64:64-i128:128-f80:128-n8:16:32:64-S128"
target triple = "x86_64-unknown-linux-gnu"

%struct.MemoryRegionOps = type { ptr, ptr, ptr, ptr, i32, %struct.anon.5, %struct.anon.6 }
%struct.anon.5 = type { i32, i32, i8, ptr }
%struct.anon.6 = type { i32, i32, i8 }
%struct.AddressSpace = type { %struct.rcu_head, ptr, ptr, ptr, i32, i32, ptr, %union.anon.0, %union.anon.1 }
%struct.rcu_head = type { ptr, ptr }
%union.anon.0 = type { %struct.QTailQLink }
%struct.QTailQLink = type { ptr, ptr }
%union.anon.1 = type { %struct.QTailQLink }
%struct.SDHCIState = type { %union.anon, %struct.SDBus, %struct.MemoryRegion, %struct.AddressSpace, ptr, ptr, ptr, ptr, ptr, ptr, i32, i16, i16, i32, i16, i16, [4 x i32], i32, i8, i8, i8, i8, i16, i8, i8, i16, i16, i16, i16, i16, i16, i16, i16, i64, i16, i64, i64, i16, ptr, i32, i16, i8, i8, i8, i32, i8, i8, i8, i8 }
%union.anon = type { %struct.PCIDevice }
%struct.PCIDevice = type { %struct.DeviceState, i8, i8, ptr, ptr, ptr, ptr, ptr, i32, %struct.PCIReqIDCache, [64 x i8], [7 x %struct.PCIIORegion], %struct.AddressSpace, %struct.MemoryRegion, %struct.MemoryRegion, ptr, ptr, [3 x ptr], i8, i8, i32, i8, i32, ptr, ptr, ptr, ptr, ptr, ptr, %struct.MemoryRegion, %struct.MemoryRegion, %struct.MemoryRegion, ptr, i8, i32, i8, %struct.PCIExpressDevice, ptr, ptr, i32, i8, %struct.MemoryRegion, i32, ptr, ptr, ptr, ptr, ptr, i32 }
%struct.DeviceState = type { %struct.Object, ptr, ptr, i8, i8, i64, ptr, i32, i8, ptr, %struct.NamedGPIOListHead, %struct.NamedClockListHead, %struct.BusStateHead, i32, i32, i32, %struct.ResettableState, ptr, %struct.MemReentrancyGuard }
%struct.Object = type { ptr, ptr, ptr, i32, ptr }
%struct.NamedGPIOListHead = type { ptr }
%struct.NamedClockListHead = type { ptr }
%struct.BusStateHead = type { ptr }
%struct.ResettableState = type { i32, i8, i8 }
%struct.MemReentrancyGuard = type { i8 }
%struct.PCIReqIDCache = type { ptr, i32 }
%struct.PCIIORegion = type { i64, i64, i8, ptr, ptr }
%struct.PCIExpressDevice = type { i8, i8, i8, i16, %struct.PCIEAERLog, i16, i16, i16, %struct.PCIESriovPF, %struct.PCIESriovVF }
%struct.PCIEAERLog = type { i16, i16, ptr }
%struct.PCIESriovPF = type { i16, [7 x i8], ptr, ptr }
%struct.PCIESriovVF = type { ptr, i16 }
%struct.SDBus = type { %struct.BusState }
%struct.BusState = type { %struct.Object, ptr, ptr, ptr, i32, i8, i8, i32, %union.BusChildHead, %struct.BusStateEntry, %struct.ResettableState }
%union.BusChildHead = type { %struct.QTailQLink }
%struct.BusStateEntry = type { ptr, ptr }
%struct.MemoryRegion = type { %struct.Object, i8, i8, i8, i8, i8, i8, i8, i8, i8, i8, ptr, ptr, ptr, ptr, ptr, ptr, i32, i128, i64, ptr, i64, i8, i8, i8, i8, i8, ptr, i64, i32, %union.anon.2, %union.anon.3, %union.anon.4, ptr, i32, ptr, ptr, i8 }
%union.anon.2 = type { %struct.QTailQLink }
%union.anon.3 = type { %struct.QTailQLink }
%union.anon.4 = type { %struct.QTailQLink }

@.str = private unnamed_addr constant [10 x i8] c"sdhci-bus\00", align 1
@.str.1 = private unnamed_addr constant [7 x i8] c"sd-bus\00", align 1
@sdhci_mmio_le_ops = internal constant %struct.MemoryRegionOps { ptr @sdhci_read, ptr @sdhci_write, ptr null, ptr null, i32 2, %struct.anon.5 { i32 1, i32 4, i8 0, ptr null }, %struct.anon.6 zeroinitializer }, align 8
@.str.35 = private unnamed_addr constant [7 x i8] c"device\00", align 1
@.str.36 = private unnamed_addr constant [101 x i8] c"/home/dtcxzyw/WorkSpace/Projects/compilers/llvm-opt-benchmark/bench/qemu/qemu/include/hw/qdev-core.h\00", align 1
@__func__.DEVICE = private unnamed_addr constant [7 x i8] c"DEVICE\00", align 1

; Function Attrs: nounwind sspstrong uwtable
define internal ptr @timer_new_full(ptr noundef %timer_list_group, i32 noundef %type, i32 noundef %scale, i32 noundef %attributes, ptr noundef %cb, ptr noundef %opaque) #0 {
entry:
  %timer_list_group.addr = alloca ptr, align 8
  %type.addr = alloca i32, align 4
  %scale.addr = alloca i32, align 4
  %attributes.addr = alloca i32, align 4
  %cb.addr = alloca ptr, align 8
  %opaque.addr = alloca ptr, align 8
  %ts = alloca ptr, align 8
  store ptr %timer_list_group, ptr %timer_list_group.addr, align 8
  store i32 %type, ptr %type.addr, align 4
  store i32 %scale, ptr %scale.addr, align 4
  store i32 %attributes, ptr %attributes.addr, align 4
  store ptr %cb, ptr %cb.addr, align 8
  store ptr %opaque, ptr %opaque.addr, align 8
  %call = call noalias ptr @g_malloc0_n(i64 noundef 1, i64 noundef 48) #10
  store ptr %call, ptr %ts, align 8
  %0 = load ptr, ptr %ts, align 8
  %1 = load ptr, ptr %timer_list_group.addr, align 8
  %2 = load i32, ptr %type.addr, align 4
  %3 = load i32, ptr %scale.addr, align 4
  %4 = load i32, ptr %attributes.addr, align 4
  %5 = load ptr, ptr %cb.addr, align 8
  %6 = load ptr, ptr %opaque.addr, align 8
  call void @timer_init_full(ptr noundef %0, ptr noundef %1, i32 noundef %2, i32 noundef %3, i32 noundef %4, ptr noundef %5, ptr noundef %6)
  %7 = load ptr, ptr %ts, align 8
  ret ptr %7
}

; Function Attrs: nounwind sspstrong uwtable
define internal ptr @timer_new(i32 noundef %type, i32 noundef %scale, ptr noundef %cb, ptr noundef %opaque) #0 {
entry:
  %type.addr = alloca i32, align 4
  %scale.addr = alloca i32, align 4
  %cb.addr = alloca ptr, align 8
  %opaque.addr = alloca ptr, align 8
  store i32 %type, ptr %type.addr, align 4
  store i32 %scale, ptr %scale.addr, align 4
  store ptr %cb, ptr %cb.addr, align 8
  store ptr %opaque, ptr %opaque.addr, align 8
  %0 = load i32, ptr %type.addr, align 4
  %1 = load i32, ptr %scale.addr, align 4
  %2 = load ptr, ptr %cb.addr, align 8
  %3 = load ptr, ptr %opaque.addr, align 8
  %call = call ptr @timer_new_full(ptr noundef null, i32 noundef %0, i32 noundef %1, i32 noundef 0, ptr noundef %2, ptr noundef %3)
  ret ptr %call
}

; Function Attrs: nounwind sspstrong uwtable
define internal ptr @timer_new_ns(i32 noundef %type, ptr noundef %cb, ptr noundef %opaque) #0 {
entry:
  %type.addr = alloca i32, align 4
  %cb.addr = alloca ptr, align 8
  %opaque.addr = alloca ptr, align 8
  store i32 %type, ptr %type.addr, align 4
  store ptr %cb, ptr %cb.addr, align 8
  store ptr %opaque, ptr %opaque.addr, align 8
  %0 = load i32, ptr %type.addr, align 4
  %1 = load ptr, ptr %cb.addr, align 8
  %2 = load ptr, ptr %opaque.addr, align 8
  %call = call ptr @timer_new(i32 noundef %0, i32 noundef 1, ptr noundef %1, ptr noundef %2)
  ret ptr %call
}

; Function Attrs: nounwind sspstrong uwtable
define internal ptr @DEVICE(ptr noundef %obj) #0 {
entry:
  %obj.addr = alloca ptr, align 8
  store ptr %obj, ptr %obj.addr, align 8
  %0 = load ptr, ptr %obj.addr, align 8
  %call = call ptr @object_dynamic_cast_assert(ptr noundef %0, ptr noundef @.str.35, ptr noundef @.str.36, i32 noundef 77, ptr noundef @__func__.DEVICE)
  ret ptr %call
}

; Function Attrs: nounwind sspstrong uwtable
define dso_local void @sdhci_initfn(ptr noundef %s) #0 {
entry:
  %s.addr = alloca ptr, align 8
  store ptr %s, ptr %s.addr, align 8
  %0 = load ptr, ptr %s.addr, align 8
  %sdbus = getelementptr inbounds %struct.SDHCIState, ptr %0, i32 0, i32 1
  %1 = load ptr, ptr %s.addr, align 8
  %call = call ptr @DEVICE(ptr noundef %1)
  call void @qbus_init(ptr noundef %sdbus, i64 noundef 120, ptr noundef @.str, ptr noundef %call, ptr noundef @.str.1)
  %2 = load ptr, ptr %s.addr, align 8
  %call1 = call ptr @timer_new_ns(i32 noundef 1, ptr noundef @sdhci_raise_insertion_irq, ptr noundef %2)
  %3 = load ptr, ptr %s.addr, align 8
  %insert_timer = getelementptr inbounds %struct.SDHCIState, ptr %3, i32 0, i32 7
  store ptr %call1, ptr %insert_timer, align 16
  %4 = load ptr, ptr %s.addr, align 8
  %call2 = call ptr @timer_new_ns(i32 noundef 1, ptr noundef @sdhci_data_transfer, ptr noundef %4)
  %5 = load ptr, ptr %s.addr, align 8
  %transfer_timer = getelementptr inbounds %struct.SDHCIState, ptr %5, i32 0, i32 8
  store ptr %call2, ptr %transfer_timer, align 8
  %6 = load ptr, ptr %s.addr, align 8
  %io_ops = getelementptr inbounds %struct.SDHCIState, ptr %6, i32 0, i32 6
  store ptr @sdhci_mmio_le_ops, ptr %io_ops, align 8
  ret void
}