; Function Attrs: nounwind sspstrong uwtable
define dso_local void @sdhci_initfn(ptr noundef %s) local_unnamed_addr #0 {
entry:
  %sdbus = getelementptr inbounds nuw i8, ptr %s, i64 2608
  %call.i = tail call ptr @object_dynamic_cast_assert(ptr noundef %s, ptr noundef nonnull @.str.35, ptr noundef nonnull @.str.36, i32 noundef 77, ptr noundef nonnull @__func__.DEVICE) #12
  tail call void @qbus_init(ptr noundef nonnull %sdbus, i64 noundef 120, ptr noundef nonnull @.str, ptr noundef %call.i, ptr noundef nonnull @.str.1) #12
  %call.i.i.i = tail call noalias dereferenceable_or_null(48) ptr @g_malloc0_n(i64 noundef 1, i64 noundef 48) #13
  tail call void @timer_init_full(ptr noundef %call.i.i.i, ptr noundef null, i32 noundef 1, i32 noundef 1, i32 noundef 0, ptr noundef nonnull @sdhci_raise_insertion_irq, ptr noundef %s) #12
  %insert_timer = getelementptr inbounds nuw i8, ptr %s, i64 3120
  store ptr %call.i.i.i, ptr %insert_timer, align 16
  %call.i.i.i7 = tail call noalias dereferenceable_or_null(48) ptr @g_malloc0_n(i64 noundef 1, i64 noundef 48) #13
  tail call void @timer_init_full(ptr noundef %call.i.i.i7, ptr noundef null, i32 noundef 1, i32 noundef 1, i32 noundef 0, ptr noundef nonnull @sdhci_data_transfer, ptr noundef %s) #12
  %transfer_timer = getelementptr inbounds nuw i8, ptr %s, i64 3128
  store ptr %call.i.i.i7, ptr %transfer_timer, align 8
  %io_ops = getelementptr inbounds nuw i8, ptr %s, i64 3112
  store ptr @sdhci_mmio_le_ops, ptr %io_ops, align 8
  ret void
}